; Function Attrs: mustprogress uwtable
define dso_local noundef float @_ZN4pbrt19ParameterDictionary16UpgradeBlackbodyERKNSt7__cxx1112basic_stringIcSt11char_traitsIcESaIcEEE(ptr noundef nonnull readonly align 8 dereferenceable(108) %0, ptr noundef nonnull readonly align 8 captures(none) dereferenceable(32) %1) local_unnamed_addr #1 align 2 {
  %3 = getelementptr inbounds nuw i8, ptr %0, i64 8
  %4 = load ptr, ptr %3, align 8, !tbaa !9
  %.not.i = icmp eq ptr %4, null
  %5 = getelementptr inbounds nuw i8, ptr %0, i64 16
  %6 = select i1 %.not.i, ptr %5, ptr %4
  %7 = getelementptr inbounds nuw i8, ptr %0, i64 88
  %8 = load i64, ptr %7, align 8, !tbaa !15
  %9 = getelementptr inbounds nuw ptr, ptr %6, i64 %8
  %.not20 = icmp eq i64 %8, 0
  br i1 %.not20, label %._crit_edge, label %.lr.ph

.lr.ph:                                           ; preds = %2
  %10 = getelementptr inbounds nuw i8, ptr %1, i64 8
  br label %11

._crit_edge:                                      ; preds = %_ZSteqIcEN9__gnu_cxx11__enable_ifIXsr9__is_charIT_EE7__valueEbE6__typeERKNSt7__cxx1112basic_stringIS2_St11char_traitsIS2_ESaIS2_EEESC_.exit.thread18, %2
  %.0.lcssa = phi float [ 1.000000e+00, %2 ], [ %.1, %_ZSteqIcEN9__gnu_cxx11__enable_ifIXsr9__is_charIT_EE7__valueEbE6__typeERKNSt7__cxx1112basic_stringIS2_St11char_traitsIS2_ESaIS2_EEESC_.exit.thread18 ]
  ret float %.0.lcssa

11:                                               ; preds = %.lr.ph, %_ZSteqIcEN9__gnu_cxx11__enable_ifIXsr9__is_charIT_EE7__valueEbE6__typeERKNSt7__cxx1112basic_stringIS2_St11char_traitsIS2_ESaIS2_EEESC_.exit.thread18
  %.022 = phi float [ 1.000000e+00, %.lr.ph ], [ %.1, %_ZSteqIcEN9__gnu_cxx11__enable_ifIXsr9__is_charIT_EE7__valueEbE6__typeERKNSt7__cxx1112basic_stringIS2_St11char_traitsIS2_ESaIS2_EEESC_.exit.thread18 ]
  %.01621 = phi ptr [ %6, %.lr.ph ], [ %36, %_ZSteqIcEN9__gnu_cxx11__enable_ifIXsr9__is_charIT_EE7__valueEbE6__typeERKNSt7__cxx1112basic_stringIS2_St11char_traitsIS2_ESaIS2_EEESC_.exit.thread18 ]
  %12 = load ptr, ptr %.01621, align 8, !tbaa !17
  %13 = getelementptr inbounds nuw i8, ptr %12, i64 32
  %14 = getelementptr inbounds nuw i8, ptr %12, i64 40
  %15 = load i64, ptr %14, align 8, !tbaa !33
  %16 = load i64, ptr %10, align 8, !tbaa !33
  %17 = icmp eq i64 %15, %16
  br i1 %17, label %18, label %_ZSteqIcEN9__gnu_cxx11__enable_ifIXsr9__is_charIT_EE7__valueEbE6__typeERKNSt7__cxx1112basic_stringIS2_St11char_traitsIS2_ESaIS2_EEESC_.exit.thread18

18:                                               ; preds = %11
  %19 = icmp eq i64 %15, 0
  br i1 %19, label %_ZSteqIcEN9__gnu_cxx11__enable_ifIXsr9__is_charIT_EE7__valueEbE6__typeERKNSt7__cxx1112basic_stringIS2_St11char_traitsIS2_ESaIS2_EEESC_.exit.thread, label %_ZSteqIcEN9__gnu_cxx11__enable_ifIXsr9__is_charIT_EE7__valueEbE6__typeERKNSt7__cxx1112basic_stringIS2_St11char_traitsIS2_ESaIS2_EEESC_.exit

_ZSteqIcEN9__gnu_cxx11__enable_ifIXsr9__is_charIT_EE7__valueEbE6__typeERKNSt7__cxx1112basic_stringIS2_St11char_traitsIS2_ESaIS2_EEESC_.exit: ; preds = %18
  %20 = load ptr, ptr %1, align 8, !tbaa !36
  %21 = load ptr, ptr %13, align 8, !tbaa !36
  %bcmp.i = tail call i32 @bcmp(ptr %21, ptr %20, i64 %15)
  %22 = icmp eq i32 %bcmp.i, 0
  br i1 %22, label %_ZSteqIcEN9__gnu_cxx11__enable_ifIXsr9__is_charIT_EE7__valueEbE6__typeERKNSt7__cxx1112basic_stringIS2_St11char_traitsIS2_ESaIS2_EEESC_.exit.thread, label %_ZSteqIcEN9__gnu_cxx11__enable_ifIXsr9__is_charIT_EE7__valueEbE6__typeERKNSt7__cxx1112basic_stringIS2_St11char_traitsIS2_ESaIS2_EEESC_.exit.thread18

_ZSteqIcEN9__gnu_cxx11__enable_ifIXsr9__is_charIT_EE7__valueEbE6__typeERKNSt7__cxx1112basic_stringIS2_St11char_traitsIS2_ESaIS2_EEESC_.exit.thread: ; preds = %18, %_ZSteqIcEN9__gnu_cxx11__enable_ifIXsr9__is_charIT_EE7__valueEbE6__typeERKNSt7__cxx1112basic_stringIS2_St11char_traitsIS2_ESaIS2_EEESC_.exit
  %23 = tail call noundef i32 @_ZNKSt7__cxx1112basic_stringIcSt11char_traitsIcESaIcEE7compareEPKc(ptr noundef nonnull align 8 dereferenceable(32) %12, ptr noundef nonnull @.str.6) #29
  %24 = icmp eq i32 %23, 0
  br i1 %24, label %25, label %_ZSteqIcEN9__gnu_cxx11__enable_ifIXsr9__is_charIT_EE7__valueEbE6__typeERKNSt7__cxx1112basic_stringIS2_St11char_traitsIS2_ESaIS2_EEESC_.exit.thread18

25:                                               ; preds = %_ZSteqIcEN9__gnu_cxx11__enable_ifIXsr9__is_charIT_EE7__valueEbE6__typeERKNSt7__cxx1112basic_stringIS2_St11char_traitsIS2_ESaIS2_EEESC_.exit.thread
  %26 = getelementptr inbounds nuw i8, ptr %12, i64 112
  %27 = load i64, ptr %26, align 8, !tbaa !44
  %.not17 = icmp eq i64 %27, 2
  br i1 %.not17, label %30, label %28

28:                                               ; preds = %25
  %29 = getelementptr inbounds nuw i8, ptr %12, i64 64
  tail call void @_ZN4pbrt9ErrorExitEPKNS_7FileLocEPKc(ptr noundef nonnull %29, ptr noundef nonnull @.str.22) #28
  unreachable

30:                                               ; preds = %25
  %31 = getelementptr inbounds nuw i8, ptr %12, i64 96
  %32 = load ptr, ptr %31, align 8, !tbaa !73
  %33 = getelementptr inbounds nuw i8, ptr %32, i64 4
  %34 = load float, ptr %33, align 4, !tbaa !74
  %35 = fmul float %.022, %34
  store i64 1, ptr %26, align 8, !tbaa !44
  br label %_ZSteqIcEN9__gnu_cxx11__enable_ifIXsr9__is_charIT_EE7__valueEbE6__typeERKNSt7__cxx1112basic_stringIS2_St11char_traitsIS2_ESaIS2_EEESC_.exit.thread18

_ZSteqIcEN9__gnu_cxx11__enable_ifIXsr9__is_charIT_EE7__valueEbE6__typeERKNSt7__cxx1112basic_stringIS2_St11char_traitsIS2_ESaIS2_EEESC_.exit.thread18: ; preds = %11, %30, %_ZSteqIcEN9__gnu_cxx11__enable_ifIXsr9__is_charIT_EE7__valueEbE6__typeERKNSt7__cxx1112basic_stringIS2_St11char_traitsIS2_ESaIS2_EEESC_.exit.thread, %_ZSteqIcEN9__gnu_cxx11__enable_ifIXsr9__is_charIT_EE7__valueEbE6__typeERKNSt7__cxx1112basic_stringIS2_St11char_traitsIS2_ESaIS2_EEESC_.exit
  %.1 = phi float [ %35, %30 ], [ %.022, %_ZSteqIcEN9__gnu_cxx11__enable_ifIXsr9__is_charIT_EE7__valueEbE6__typeERKNSt7__cxx1112basic_stringIS2_St11char_traitsIS2_ESaIS2_EEESC_.exit.thread ], [ %.022, %_ZSteqIcEN9__gnu_cxx11__enable_ifIXsr9__is_charIT_EE7__valueEbE6__typeERKNSt7__cxx1112basic_stringIS2_St11char_traitsIS2_ESaIS2_EEESC_.exit ], [ %.022, %11 ]
  %36 = getelementptr inbounds nuw i8, ptr %.01621, i64 8
  %.not = icmp eq ptr %36, %9
  br i1 %.not, label %._crit_edge, label %11
}